target datalayout = "e-m:e-p270:32:32-p271:32:32-p272:64:64-i64:64-i128:128-f80:128-n8:16:32:64-S128"
target triple = "x86_64-pc-linux-gnu"

%struct.SDL_RenderViewState = type { i32, i32, %struct.SDL_Rect, %struct.SDL_Rect, %struct.SDL_Rect, %struct.SDL_Rect, i8, %struct.SDL_FPoint, i32, i32, i32, %struct.SDL_FRect, %struct.SDL_FRect, %struct.SDL_FPoint, %struct.SDL_FPoint, %struct.SDL_FPoint }
%struct.SDL_FRect = type { float, float, float, float }
%struct.SDL_FPoint = type { float, float }
%struct.SDL_FColor = type { float, float, float, float }
%struct.SDL_Rect = type { i32, i32, i32, i32 }
%struct.SDL_Texture = type { i32, i32, i32, i32, i32, float, float, i32, i32, i32, %struct.SDL_FColor, %struct.SDL_RenderViewState, ptr, ptr, ptr, ptr, i32, %struct.SDL_Rect, ptr, i32, i32, ptr, ptr, ptr }
%struct.GLES2_TextureData = type { i32, i8, i32, i32, i32, ptr, i32, i8, i8, i32, i32, i32, i32, [4 x float], i32, i32, i32, ptr }

; Function Attrs: nounwind uwtable
define internal void @GLES2_UnlockTexture(ptr noundef %0, ptr noundef %1) #0 {
  %3 = alloca ptr, align 8
  %4 = alloca ptr, align 8
  %5 = alloca ptr, align 8
  %6 = alloca %struct.SDL_Rect, align 4
  store ptr %0, ptr %3, align 8
  store ptr %1, ptr %4, align 8
  call void @llvm.lifetime.start.p0(i64 8, ptr %5) #6
  %7 = load ptr, ptr %4, align 8
  %8 = getelementptr inbounds nuw %struct.SDL_Texture, ptr %7, i32 0, i32 21
  %9 = load ptr, ptr %8, align 8
  store ptr %9, ptr %5, align 8
  call void @llvm.lifetime.start.p0(i64 16, ptr %6) #6
  %10 = getelementptr inbounds nuw %struct.SDL_Rect, ptr %6, i32 0, i32 0
  store i32 0, ptr %10, align 4
  %11 = getelementptr inbounds nuw %struct.SDL_Rect, ptr %6, i32 0, i32 1
  store i32 0, ptr %11, align 4
  %12 = load ptr, ptr %4, align 8
  %13 = getelementptr inbounds nuw %struct.SDL_Texture, ptr %12, i32 0, i32 1
  %14 = load i32, ptr %13, align 4
  %15 = getelementptr inbounds nuw %struct.SDL_Rect, ptr %6, i32 0, i32 2
  store i32 %14, ptr %15, align 4
  %16 = load ptr, ptr %4, align 8
  %17 = getelementptr inbounds nuw %struct.SDL_Texture, ptr %16, i32 0, i32 2
  %18 = load i32, ptr %17, align 8
  %19 = getelementptr inbounds nuw %struct.SDL_Rect, ptr %6, i32 0, i32 3
  store i32 %18, ptr %19, align 4
  %20 = load ptr, ptr %3, align 8
  %21 = load ptr, ptr %4, align 8
  %22 = load ptr, ptr %5, align 8
  %23 = getelementptr inbounds nuw %struct.GLES2_TextureData, ptr %22, i32 0, i32 5
  %24 = load ptr, ptr %23, align 8
  %25 = load ptr, ptr %5, align 8
  %26 = getelementptr inbounds nuw %struct.GLES2_TextureData, ptr %25, i32 0, i32 6
  %27 = load i32, ptr %26, align 8
  %28 = call zeroext i1 @GLES2_UpdateTexture(ptr noundef %20, ptr noundef %21, ptr noundef %6, ptr noundef %24, i32 noundef %27)
  call void @llvm.lifetime.end.p0(i64 16, ptr %6) #6
  call void @llvm.lifetime.end.p0(i64 8, ptr %5) #6
  ret void
}