; Function Attrs: nounwind uwtable
define internal void @GLES2_UnlockTexture(ptr noundef readonly captures(none) %0, ptr noundef readonly captures(none) %1) #0 {
  %3 = alloca %struct.SDL_Rect, align 4
  %4 = getelementptr inbounds nuw i8, ptr %1, i64 280
  %5 = load ptr, ptr %4, align 8
  call void @llvm.lifetime.start.p0(i64 16, ptr nonnull %3) #10
  store i32 0, ptr %3, align 4
  %6 = getelementptr inbounds nuw i8, ptr %3, i64 4
  store i32 0, ptr %6, align 4
  %7 = getelementptr inbounds nuw i8, ptr %1, i64 4
  %8 = load i32, ptr %7, align 4
  %9 = getelementptr inbounds nuw i8, ptr %3, i64 8
  store i32 %8, ptr %9, align 4
  %10 = getelementptr inbounds nuw i8, ptr %1, i64 8
  %11 = load i32, ptr %10, align 8
  %12 = getelementptr inbounds nuw i8, ptr %3, i64 12
  store i32 %11, ptr %12, align 4
  %13 = getelementptr inbounds nuw i8, ptr %5, i64 24
  %14 = load ptr, ptr %13, align 8
  %15 = getelementptr inbounds nuw i8, ptr %5, i64 32
  %16 = load i32, ptr %15, align 8
  %17 = call zeroext i1 @GLES2_UpdateTexture(ptr noundef %0, ptr noundef %1, ptr noundef nonnull %3, ptr noundef %14, i32 noundef %16)
  call void @llvm.lifetime.end.p0(i64 16, ptr nonnull %3) #10
  ret void
}